target datalayout = "e-m:e-p270:32:32-p271:32:32-p272:64:64-i64:64-i128:128-f80:128-n8:16:32:64-S128"
target triple = "x86_64-pc-linux-gnu"

%"class.llvm::StringRef" = type { ptr, i64 }
%"class.std::bitset" = type { %"struct.std::_Base_bitset" }
%"struct.std::_Base_bitset" = type { [4 x i64] }

@.str.6 = private unnamed_addr constant [12 x i8] c"bitset::set\00", align 1
@.str.7 = private unnamed_addr constant [52 x i8] c"%s: __position (which is %zu) >= _Nb (which is %zu)\00", align 1
@.str.8 = private unnamed_addr constant [13 x i8] c"bitset::test\00", align 1

; Function Attrs: mustprogress nounwind uwtable
define linkonce_odr hidden noundef i64 @_ZNSt12_Base_bitsetILm4EE12_S_whichwordEm(i64 noundef %0) #0 comdat align 2 {
  %2 = alloca i64, align 8
  store i64 %0, ptr %2, align 8
  %3 = load i64, ptr %2, align 8
  %4 = udiv i64 %3, 64
  ret i64 %4
}

; Function Attrs: mustprogress nounwind uwtable
define linkonce_odr hidden noundef i64 @_ZNSt12_Base_bitsetILm4EE11_S_whichbitEm(i64 noundef %0) #0 comdat align 2 {
  %2 = alloca i64, align 8
  store i64 %0, ptr %2, align 8
  %3 = load i64, ptr %2, align 8
  %4 = urem i64 %3, 64
  ret i64 %4
}

; Function Attrs: mustprogress nounwind uwtable
define linkonce_odr hidden noundef i64 @_ZNKSt12_Base_bitsetILm4EE10_M_getwordEm(ptr noundef nonnull align 8 dereferenceable(32) %0, i64 noundef %1) #0 comdat align 2 {
  %3 = alloca ptr, align 8
  %4 = alloca i64, align 8
  store ptr %0, ptr %3, align 8
  store i64 %1, ptr %4, align 8
  %5 = load ptr, ptr %3, align 8
  %6 = getelementptr inbounds nuw %"struct.std::_Base_bitset", ptr %5, i32 0, i32 0
  %7 = load i64, ptr %4, align 8
  %8 = call noundef i64 @_ZNSt12_Base_bitsetILm4EE12_S_whichwordEm(i64 noundef %7) #12
  %9 = getelementptr inbounds [4 x i64], ptr %6, i64 0, i64 %8
  %10 = load i64, ptr %9, align 8
  ret i64 %10
}

; Function Attrs: mustprogress nounwind uwtable
define linkonce_odr hidden noundef nonnull align 8 dereferenceable(8) ptr @_ZNSt12_Base_bitsetILm4EE10_M_getwordEm(ptr noundef nonnull align 8 dereferenceable(32) %0, i64 noundef %1) #0 comdat align 2 {
  %3 = alloca ptr, align 8
  %4 = alloca i64, align 8
  store ptr %0, ptr %3, align 8
  store i64 %1, ptr %4, align 8
  %5 = load ptr, ptr %3, align 8
  %6 = getelementptr inbounds nuw %"struct.std::_Base_bitset", ptr %5, i32 0, i32 0
  %7 = load i64, ptr %4, align 8
  %8 = call noundef i64 @_ZNSt12_Base_bitsetILm4EE12_S_whichwordEm(i64 noundef %7) #12
  %9 = getelementptr inbounds [4 x i64], ptr %6, i64 0, i64 %8
  ret ptr %9
}

; Function Attrs: mustprogress nounwind uwtable
define linkonce_odr hidden noundef i64 @_ZNSt12_Base_bitsetILm4EE10_S_maskbitEm(i64 noundef %0) #0 comdat align 2 {
  %2 = alloca i64, align 8
  store i64 %0, ptr %2, align 8
  %3 = load i64, ptr %2, align 8
  %4 = call noundef i64 @_ZNSt12_Base_bitsetILm4EE11_S_whichbitEm(i64 noundef %3) #12
  %5 = shl i64 1, %4
  ret i64 %5
}

; Function Attrs: mustprogress nounwind uwtable
define linkonce_odr hidden noundef zeroext i1 @_ZNKSt6bitsetILm256EE15_Unchecked_testEm(ptr noundef nonnull align 8 dereferenceable(32) %0, i64 noundef %1) #0 comdat align 2 {
  %3 = alloca ptr, align 8
  %4 = alloca i64, align 8
  store ptr %0, ptr %3, align 8
  store i64 %1, ptr %4, align 8
  %5 = load ptr, ptr %3, align 8
  %6 = load i64, ptr %4, align 8
  %7 = call noundef i64 @_ZNKSt12_Base_bitsetILm4EE10_M_getwordEm(ptr noundef nonnull align 8 dereferenceable(32) %5, i64 noundef %6) #12
  %8 = load i64, ptr %4, align 8
  %9 = call noundef i64 @_ZNSt12_Base_bitsetILm4EE10_S_maskbitEm(i64 noundef %8) #12
  %10 = and i64 %7, %9
  %11 = icmp ne i64 %10, 0
  ret i1 %11
}

; Function Attrs: mustprogress nounwind uwtable
define linkonce_odr hidden noundef nonnull align 8 dereferenceable(32) ptr @_ZNSt6bitsetILm256EE14_Unchecked_setEmi(ptr noundef nonnull align 8 dereferenceable(32) %0, i64 noundef %1, i32 noundef %2) #0 comdat align 2 {
  %4 = alloca ptr, align 8
  %5 = alloca i64, align 8
  %6 = alloca i32, align 4
  store ptr %0, ptr %4, align 8
  store i64 %1, ptr %5, align 8
  store i32 %2, ptr %6, align 4
  %7 = load ptr, ptr %4, align 8
  %8 = load i32, ptr %6, align 4
  %9 = icmp ne i32 %8, 0
  br i1 %9, label %10, label %17

10:                                               ; preds = %3
  %11 = load i64, ptr %5, align 8
  %12 = call noundef i64 @_ZNSt12_Base_bitsetILm4EE10_S_maskbitEm(i64 noundef %11) #12
  %13 = load i64, ptr %5, align 8
  %14 = call noundef nonnull align 8 dereferenceable(8) ptr @_ZNSt12_Base_bitsetILm4EE10_M_getwordEm(ptr noundef nonnull align 8 dereferenceable(32) %7, i64 noundef %13) #12
  %15 = load i64, ptr %14, align 8
  %16 = or i64 %15, %12
  store i64 %16, ptr %14, align 8
  br label %25

17:                                               ; preds = %3
  %18 = load i64, ptr %5, align 8
  %19 = call noundef i64 @_ZNSt12_Base_bitsetILm4EE10_S_maskbitEm(i64 noundef %18) #12
  %20 = xor i64 %19, -1
  %21 = load i64, ptr %5, align 8
  %22 = call noundef nonnull align 8 dereferenceable(8) ptr @_ZNSt12_Base_bitsetILm4EE10_M_getwordEm(ptr noundef nonnull align 8 dereferenceable(32) %7, i64 noundef %21) #12
  %23 = load i64, ptr %22, align 8
  %24 = and i64 %23, %20
  store i64 %24, ptr %22, align 8
  br label %25

25:                                               ; preds = %17, %10
  ret ptr %7
}

; Function Attrs: mustprogress nounwind uwtable
define linkonce_odr hidden void @_ZNKSt6bitsetILm256EE8_M_checkEmPKc(ptr noundef nonnull align 8 dereferenceable(32) %0, i64 noundef %1, ptr noundef %2) #0 comdat align 2 {
  %4 = alloca ptr, align 8
  %5 = alloca i64, align 8
  %6 = alloca ptr, align 8
  store ptr %0, ptr %4, align 8
  store i64 %1, ptr %5, align 8
  store ptr %2, ptr %6, align 8
  %7 = load i64, ptr %5, align 8
  %8 = icmp uge i64 %7, 256
  br i1 %8, label %9, label %12

9:                                                ; preds = %3
  %10 = load ptr, ptr %6, align 8
  %11 = load i64, ptr %5, align 8
  call void (ptr, ...) @_ZSt24__throw_out_of_range_fmtPKcz(ptr noundef @.str.7, ptr noundef %10, i64 noundef %11, i64 noundef 256) #16
  unreachable

12:                                               ; preds = %3
  ret void
}

; Function Attrs: mustprogress nounwind uwtable
define linkonce_odr hidden void @_ZNSt12_Base_bitsetILm4EEC2Ev(ptr noundef nonnull align 8 dereferenceable(32) %0) unnamed_addr #0 comdat align 2 {
  %2 = alloca ptr, align 8
  store ptr %0, ptr %2, align 8
  %3 = load ptr, ptr %2, align 8
  %4 = getelementptr inbounds nuw %"struct.std::_Base_bitset", ptr %3, i32 0, i32 0
  call void @llvm.memset.p0.i64(ptr align 8 %4, i8 0, i64 32, i1 false)
  ret void
}

; Function Attrs: mustprogress nounwind uwtable
define linkonce_odr hidden noundef zeroext i1 @_ZNKSt6bitsetILm256EE4testEm(ptr noundef nonnull align 8 dereferenceable(32) %0, i64 noundef %1) #0 comdat align 2 {
  %3 = alloca ptr, align 8
  %4 = alloca i64, align 8
  store ptr %0, ptr %3, align 8
  store i64 %1, ptr %4, align 8
  %5 = load ptr, ptr %3, align 8
  %6 = load i64, ptr %4, align 8
  call void @_ZNKSt6bitsetILm256EE8_M_checkEmPKc(ptr noundef nonnull align 8 dereferenceable(32) %5, i64 noundef %6, ptr noundef @.str.8)
  %7 = load i64, ptr %4, align 8
  %8 = call noundef zeroext i1 @_ZNKSt6bitsetILm256EE15_Unchecked_testEm(ptr noundef nonnull align 8 dereferenceable(32) %5, i64 noundef %7) #12
  ret i1 %8
}

; Function Attrs: mustprogress nounwind uwtable
define linkonce_odr noundef nonnull align 8 dereferenceable(8) ptr @_ZSt3minImERKT_S2_S2_(ptr noundef nonnull align 8 dereferenceable(8) %0, ptr noundef nonnull align 8 dereferenceable(8) %1) #0 comdat {
  %3 = alloca ptr, align 8
  %4 = alloca ptr, align 8
  %5 = alloca ptr, align 8
  store ptr %0, ptr %4, align 8
  store ptr %1, ptr %5, align 8
  %6 = load ptr, ptr %5, align 8
  %7 = load i64, ptr %6, align 8
  %8 = load ptr, ptr %4, align 8
  %9 = load i64, ptr %8, align 8
  %10 = icmp ult i64 %7, %9
  br i1 %10, label %11, label %13

11:                                               ; preds = %2
  %12 = load ptr, ptr %5, align 8
  store ptr %12, ptr %3, align 8
  br label %15

13:                                               ; preds = %2
  %14 = load ptr, ptr %4, align 8
  store ptr %14, ptr %3, align 8
  br label %15

15:                                               ; preds = %13, %11
  %16 = load ptr, ptr %3, align 8
  ret ptr %16
}

; Function Attrs: mustprogress nounwind uwtable
define linkonce_odr hidden noundef nonnull align 8 dereferenceable(32) ptr @_ZNSt6bitsetILm256EE3setEmb(ptr noundef nonnull align 8 dereferenceable(32) %0, i64 noundef %1, i1 noundef zeroext %2) #0 comdat align 2 {
  %4 = alloca ptr, align 8
  %5 = alloca i64, align 8
  %6 = alloca i8, align 1
  store ptr %0, ptr %4, align 8
  store i64 %1, ptr %5, align 8
  %7 = zext i1 %2 to i8
  store i8 %7, ptr %6, align 1
  %8 = load ptr, ptr %4, align 8
  %9 = load i64, ptr %5, align 8
  call void @_ZNKSt6bitsetILm256EE8_M_checkEmPKc(ptr noundef nonnull align 8 dereferenceable(32) %8, i64 noundef %9, ptr noundef @.str.6)
  %10 = load i64, ptr %5, align 8
  %11 = load i8, ptr %6, align 1
  %12 = trunc i8 %11 to i1
  %13 = zext i1 %12 to i32
  %14 = call noundef nonnull align 8 dereferenceable(32) ptr @_ZNSt6bitsetILm256EE14_Unchecked_setEmi(ptr noundef nonnull align 8 dereferenceable(32) %8, i64 noundef %10, i32 noundef %13) #12
  ret ptr %14
}

; Function Attrs: mustprogress nounwind uwtable
define linkonce_odr hidden noundef ptr @_ZNK4llvm9StringRef3endEv(ptr noundef nonnull align 8 dereferenceable(16) %0) #0 comdat align 2 {
  %2 = alloca ptr, align 8
  store ptr %0, ptr %2, align 8
  %3 = load ptr, ptr %2, align 8
  %4 = getelementptr inbounds nuw %"class.llvm::StringRef", ptr %3, i32 0, i32 0
  %5 = load ptr, ptr %4, align 8
  %6 = getelementptr inbounds nuw %"class.llvm::StringRef", ptr %3, i32 0, i32 1
  %7 = load i64, ptr %6, align 8
  %8 = getelementptr inbounds i8, ptr %5, i64 %7
  ret ptr %8
}

; Function Attrs: mustprogress nounwind uwtable
define linkonce_odr hidden noundef ptr @_ZNK4llvm9StringRef5beginEv(ptr noundef nonnull align 8 dereferenceable(16) %0) #0 comdat align 2 {
  %2 = alloca ptr, align 8
  store ptr %0, ptr %2, align 8
  %3 = load ptr, ptr %2, align 8
  %4 = getelementptr inbounds nuw %"class.llvm::StringRef", ptr %3, i32 0, i32 0
  %5 = load ptr, ptr %4, align 8
  ret ptr %5
}

; Function Attrs: mustprogress nounwind uwtable
define linkonce_odr hidden void @_ZNSt6bitsetILm256EEC2Ev(ptr noundef nonnull align 8 dereferenceable(32) %0) unnamed_addr #0 comdat align 2 {
  %2 = alloca ptr, align 8
  store ptr %0, ptr %2, align 8
  %3 = load ptr, ptr %2, align 8
  call void @_ZNSt12_Base_bitsetILm4EEC2Ev(ptr noundef nonnull align 8 dereferenceable(32) %3) #12
  ret void
}

; Function Attrs: mustprogress nounwind uwtable
define dso_local noundef i64 @_ZNK4llvm9StringRef12find_last_ofES0_m(ptr noundef nonnull align 8 dereferenceable(16) %0, ptr %1, i64 %2, i64 noundef %3) #0 align 2 {
  %5 = alloca i64, align 8
  %6 = alloca %"class.llvm::StringRef", align 8
  %7 = alloca ptr, align 8
  %8 = alloca i64, align 8
  %9 = alloca %"class.std::bitset", align 8
  %10 = alloca ptr, align 8
  %11 = alloca ptr, align 8
  %12 = alloca ptr, align 8
  %13 = alloca i8, align 1
  %14 = alloca i64, align 8
  %15 = alloca i64, align 8
  %16 = getelementptr inbounds nuw { ptr, i64 }, ptr %6, i32 0, i32 0
  store ptr %1, ptr %16, align 8
  %17 = getelementptr inbounds nuw { ptr, i64 }, ptr %6, i32 0, i32 1
  store i64 %2, ptr %17, align 8
  store ptr %0, ptr %7, align 8
  store i64 %3, ptr %8, align 8
  %18 = load ptr, ptr %7, align 8
  call void @_ZNSt6bitsetILm256EEC2Ev(ptr noundef nonnull align 8 dereferenceable(32) %9) #12
  store ptr %6, ptr %10, align 8
  %19 = load ptr, ptr %10, align 8
  %20 = call noundef ptr @_ZNK4llvm9StringRef5beginEv(ptr noundef nonnull align 8 dereferenceable(16) %19)
  store ptr %20, ptr %11, align 8
  %21 = load ptr, ptr %10, align 8
  %22 = call noundef ptr @_ZNK4llvm9StringRef3endEv(ptr noundef nonnull align 8 dereferenceable(16) %21)
  store ptr %22, ptr %12, align 8
  br label %23

23:                                               ; preds = %33, %4
  %24 = load ptr, ptr %11, align 8
  %25 = load ptr, ptr %12, align 8
  %26 = icmp ne ptr %24, %25
  br i1 %26, label %27, label %36

27:                                               ; preds = %23
  %28 = load ptr, ptr %11, align 8
  %29 = load i8, ptr %28, align 1
  store i8 %29, ptr %13, align 1
  %30 = load i8, ptr %13, align 1
  %31 = zext i8 %30 to i64
  %32 = call noundef nonnull align 8 dereferenceable(32) ptr @_ZNSt6bitsetILm256EE3setEmb(ptr noundef nonnull align 8 dereferenceable(32) %9, i64 noundef %31, i1 noundef zeroext true)
  br label %33

33:                                               ; preds = %27
  %34 = load ptr, ptr %11, align 8
  %35 = getelementptr inbounds i8, ptr %34, i32 1
  store ptr %35, ptr %11, align 8
  br label %23

36:                                               ; preds = %23
  %37 = getelementptr inbounds nuw %"class.llvm::StringRef", ptr %18, i32 0, i32 1
  %38 = call noundef nonnull align 8 dereferenceable(8) ptr @_ZSt3minImERKT_S2_S2_(ptr noundef nonnull align 8 dereferenceable(8) %8, ptr noundef nonnull align 8 dereferenceable(8) %37)
  %39 = load i64, ptr %38, align 8
  %40 = sub i64 %39, 1
  store i64 %40, ptr %14, align 8
  store i64 -1, ptr %15, align 8
  br label %41

41:                                               ; preds = %56, %36
  %42 = load i64, ptr %14, align 8
  %43 = load i64, ptr %15, align 8
  %44 = icmp ne i64 %42, %43
  br i1 %44, label %45, label %59

45:                                               ; preds = %41
  %46 = getelementptr inbounds nuw %"class.llvm::StringRef", ptr %18, i32 0, i32 0
  %47 = load ptr, ptr %46, align 8
  %48 = load i64, ptr %14, align 8
  %49 = getelementptr inbounds i8, ptr %47, i64 %48
  %50 = load i8, ptr %49, align 1
  %51 = zext i8 %50 to i64
  %52 = call noundef zeroext i1 @_ZNKSt6bitsetILm256EE4testEm(ptr noundef nonnull align 8 dereferenceable(32) %9, i64 noundef %51)
  br i1 %52, label %53, label %55

53:                                               ; preds = %45
  %54 = load i64, ptr %14, align 8
  store i64 %54, ptr %5, align 8
  br label %60

55:                                               ; preds = %45
  br label %56

56:                                               ; preds = %55
  %57 = load i64, ptr %14, align 8
  %58 = add i64 %57, -1
  store i64 %58, ptr %14, align 8
  br label %41, !llvm.loop !22

59:                                               ; preds = %41
  store i64 -1, ptr %5, align 8
  br label %60

60:                                               ; preds = %59, %53
  %61 = load i64, ptr %5, align 8
  ret i64 %61
}