; Function Attrs: mustprogress nofree norecurse nosync nounwind willreturn memory(read, inaccessiblemem: none) uwtable
define dso_local noundef i64 @_ZNK4llvm9StringRef12find_last_ofES0_m(ptr noundef nonnull readonly align 8 captures(none) dereferenceable(16) %0, ptr readonly %1, i64 %2, i64 noundef %3) local_unnamed_addr #0 align 2 {
  %5 = alloca %"class.std::bitset", align 8
  call void @llvm.memset.p0.i64(ptr noundef nonnull align 8 dereferenceable(32) %5, i8 0, i64 32, i1 false)
  %6 = getelementptr inbounds i8, ptr %1, i64 %2
  %.not19 = icmp eq i64 %2, 0
  br i1 %.not19, label %._crit_edge, label %.lr.ph

.lr.ph:                                           ; preds = %4, %.lr.ph
  %.01420 = phi ptr [ %15, %.lr.ph ], [ %1, %4 ]
  %7 = load i8, ptr %.01420, align 1
  %8 = zext i8 %7 to i64
  %9 = and i64 %8, 63
  %10 = shl nuw i64 1, %9
  %11 = lshr i64 %8, 6
  %12 = getelementptr inbounds nuw [4 x i64], ptr %5, i64 0, i64 %11
  %13 = load i64, ptr %12, align 8
  %14 = or i64 %10, %13
  store i64 %14, ptr %12, align 8
  %15 = getelementptr inbounds nuw i8, ptr %.01420, i64 1
  %.not = icmp eq ptr %15, %6
  br i1 %.not, label %._crit_edge, label %.lr.ph

._crit_edge:                                      ; preds = %.lr.ph, %4
  %16 = getelementptr inbounds nuw i8, ptr %0, i64 8
  %17 = load i64, ptr %16, align 8
  %.sroa.speculated = tail call i64 @llvm.umin.i64(i64 %17, i64 %3)
  %18 = load ptr, ptr %0, align 8
  br label %19

19:                                               ; preds = %20, %._crit_edge
  %.013.in = phi i64 [ %.sroa.speculated, %._crit_edge ], [ %.013, %20 ]
  %.not15 = icmp eq i64 %.013.in, 0
  br i1 %.not15, label %30, label %20

20:                                               ; preds = %19
  %.013 = add i64 %.013.in, -1
  %21 = getelementptr inbounds i8, ptr %18, i64 %.013
  %22 = load i8, ptr %21, align 1
  %23 = zext i8 %22 to i64
  %24 = lshr i64 %23, 6
  %25 = getelementptr inbounds nuw [4 x i64], ptr %5, i64 0, i64 %24
  %26 = load i64, ptr %25, align 8
  %27 = and i64 %23, 63
  %28 = shl nuw i64 1, %27
  %29 = and i64 %28, %26
  %.not18 = icmp eq i64 %29, 0
  br i1 %.not18, label %19, label %30, !llvm.loop !23

30:                                               ; preds = %19, %20
  %.013.lcssa = phi i64 [ -1, %19 ], [ %.013, %20 ]
  ret i64 %.013.lcssa
}